; Function Attrs: nounwind uwtable
define internal fastcc ptr @_init_l_Lean_Meta_Grind_Arith_Cutsat_resolveDvdConflict___closed__2() unnamed_addr #1 {
  %1 = load ptr, ptr @l___private_Lean_Meta_Tactic_Grind_Arith_Cutsat_Search_0__Lean_Meta_Grind_Arith_Cutsat_traceAssignment___closed__1, align 8, !tbaa !11
  %2 = load ptr, ptr @l___private_Lean_Meta_Tactic_Grind_Arith_Cutsat_Search_0__Lean_Meta_Grind_Arith_Cutsat_traceAssignment___closed__2, align 8, !tbaa !11
  %3 = load ptr, ptr @l___private_Lean_Meta_Tactic_Grind_Arith_Cutsat_Search_0__Lean_Meta_Grind_Arith_Cutsat_traceAssignment___closed__3, align 8, !tbaa !11
  %4 = load ptr, ptr @l___private_Lean_Meta_Tactic_Grind_Arith_Cutsat_Search_0__Lean_Meta_Grind_Arith_Cutsat_traceAssignment___closed__4, align 8, !tbaa !11
  %5 = load ptr, ptr @l_Lean_Meta_Grind_Arith_Cutsat_resolveDvdConflict___closed__1, align 8, !tbaa !11
  %6 = tail call ptr @l_Lean_Name_mkStr5(ptr noundef %1, ptr noundef %2, ptr noundef %3, ptr noundef %4, ptr noundef %5) #6
  ret ptr %6
}